; Function Attrs: mustprogress uwtable
define internal void @_ZN9grpc_core12_GLOBAL__N_127IdentityCertificatesWatcher7OnErrorEN4absl12lts_202308026StatusES4_(ptr noundef nonnull align 8 dereferenceable(48) %this, ptr nocapture readnone %0, ptr nocapture noundef readonly %identity_cert_error) unnamed_addr #6 align 2 personality ptr @__gxx_personality_v0 {
entry:
  %agg.tmp = alloca %"class.std::optional", align 8
  %agg.tmp4 = alloca %"class.std::optional", align 8
  %1 = load i64, ptr %identity_cert_error, align 8
  %cmp.i = icmp eq i64 %1, 0
  br i1 %cmp.i, label %if.end, label %if.then

if.then:                                          ; preds = %entry
  %parent_ = getelementptr inbounds i8, ptr %this, i64 8
  %2 = load ptr, ptr %parent_, align 8
  %_M_engaged.i.i.i.i.i = getelementptr inbounds i8, ptr %agg.tmp, i64 8
  store i8 0, ptr %_M_engaged.i.i.i.i.i, align 8
  store i64 %1, ptr %agg.tmp4, align 8
  %and.i.i.i.i.i.i.i.i.i = and i64 %1, 1
  %cmp.i.i.i.i.i.i.i.i.i = icmp eq i64 %and.i.i.i.i.i.i.i.i.i, 0
  br i1 %cmp.i.i.i.i.i.i.i.i.i, label %invoke.cont, label %if.then.i.i.i.i.i.i.i.i

if.then.i.i.i.i.i.i.i.i:                          ; preds = %if.then
  %sub.i.i.i.i.i.i.i.i.i = add nsw i64 %1, -1
  %3 = inttoptr i64 %sub.i.i.i.i.i.i.i.i.i to ptr
  %4 = atomicrmw add ptr %3, i32 1 monotonic, align 4
  br label %invoke.cont

invoke.cont:                                      ; preds = %if.then.i.i.i.i.i.i.i.i, %if.then
  %_M_engaged.i.i.i.i.i2 = getelementptr inbounds i8, ptr %agg.tmp4, i64 8
  store i8 1, ptr %_M_engaged.i.i.i.i.i2, align 8
  %cert_name_ = getelementptr inbounds i8, ptr %this, i64 16
  invoke void @_ZN32grpc_tls_certificate_distributor15SetErrorForCertERKNSt7__cxx1112basic_stringIcSt11char_traitsIcESaIcEEESt8optionalIN4absl12lts_202308026StatusEESC_(ptr noundef nonnull align 8 dereferenceable(160) %2, ptr noundef nonnull align 8 dereferenceable(32) %cert_name_, ptr noundef nonnull %agg.tmp, ptr noundef nonnull %agg.tmp4)
          to label %invoke.cont6 unwind label %lpad5

invoke.cont6:                                     ; preds = %invoke.cont
  %5 = load i8, ptr %_M_engaged.i.i.i.i.i2, align 8
  %6 = and i8 %5, 1
  %tobool.not.i.i.i.i = icmp eq i8 %6, 0
  br i1 %tobool.not.i.i.i.i, label %_ZNSt8optionalIN4absl12lts_202308026StatusEED2Ev.exit, label %if.then.i.i.i.i

if.then.i.i.i.i:                                  ; preds = %invoke.cont6
  store i8 0, ptr %_M_engaged.i.i.i.i.i2, align 8
  %7 = load i64, ptr %agg.tmp4, align 8
  %and.i.i.i.i.i.i.i.i = and i64 %7, 1
  %cmp.i.i.i.i.i.i.i.i = icmp eq i64 %and.i.i.i.i.i.i.i.i, 0
  br i1 %cmp.i.i.i.i.i.i.i.i, label %_ZNSt8optionalIN4absl12lts_202308026StatusEED2Ev.exit, label %if.then.i.i.i.i.i.i.i

if.then.i.i.i.i.i.i.i:                            ; preds = %if.then.i.i.i.i
  invoke void @_ZN4absl12lts_202308026Status15UnrefNonInlinedEm(i64 noundef %7)
          to label %_ZNSt8optionalIN4absl12lts_202308026StatusEED2Ev.exit unwind label %terminate.lpad.i.i.i.i.i.i

terminate.lpad.i.i.i.i.i.i:                       ; preds = %if.then.i.i.i.i.i.i.i
  %8 = landingpad { ptr, i32 }
          catch ptr null
  %9 = extractvalue { ptr, i32 } %8, 0
  call void @__clang_call_terminate(ptr %9) #19
  unreachable

_ZNSt8optionalIN4absl12lts_202308026StatusEED2Ev.exit: ; preds = %invoke.cont6, %if.then.i.i.i.i, %if.then.i.i.i.i.i.i.i
  %10 = load i8, ptr %_M_engaged.i.i.i.i.i, align 8
  %11 = and i8 %10, 1
  %tobool.not.i.i.i.i4 = icmp eq i8 %11, 0
  br i1 %tobool.not.i.i.i.i4, label %if.end, label %if.then.i.i.i.i5

if.then.i.i.i.i5:                                 ; preds = %_ZNSt8optionalIN4absl12lts_202308026StatusEED2Ev.exit
  store i8 0, ptr %_M_engaged.i.i.i.i.i, align 8
  %12 = load i64, ptr %agg.tmp, align 8
  %and.i.i.i.i.i.i.i.i6 = and i64 %12, 1
  %cmp.i.i.i.i.i.i.i.i7 = icmp eq i64 %and.i.i.i.i.i.i.i.i6, 0
  br i1 %cmp.i.i.i.i.i.i.i.i7, label %if.end, label %if.then.i.i.i.i.i.i.i8

if.then.i.i.i.i.i.i.i8:                           ; preds = %if.then.i.i.i.i5
  invoke void @_ZN4absl12lts_202308026Status15UnrefNonInlinedEm(i64 noundef %12)
          to label %if.end unwind label %terminate.lpad.i.i.i.i.i.i9

terminate.lpad.i.i.i.i.i.i9:                      ; preds = %if.then.i.i.i.i.i.i.i8
  %13 = landingpad { ptr, i32 }
          catch ptr null
  %14 = extractvalue { ptr, i32 } %13, 0
  call void @__clang_call_terminate(ptr %14) #19
  unreachable

lpad5:                                            ; preds = %invoke.cont
  %15 = landingpad { ptr, i32 }
          cleanup
  call void @_ZNSt8optionalIN4absl12lts_202308026StatusEED2Ev(ptr noundef nonnull align 8 dereferenceable(16) %agg.tmp4) #18
  call void @_ZNSt8optionalIN4absl12lts_202308026StatusEED2Ev(ptr noundef nonnull align 8 dereferenceable(16) %agg.tmp) #18
  resume { ptr, i32 } %15

if.end:                                           ; preds = %if.then.i.i.i.i.i.i.i8, %if.then.i.i.i.i5, %_ZNSt8optionalIN4absl12lts_202308026StatusEED2Ev.exit, %entry
  ret void
}